; Function Attrs: mustprogress nounwind uwtable
define dso_local void @_ZN5clang6driver9JobActionC2ENS0_6Action11ActionClassERKN4llvm11SmallVectorIPS2_Lj3EEENS0_5types2IDE(ptr noundef nonnull align 8 dereferenceable(88) %0, i32 noundef %1, ptr noundef nonnull align 8 dereferenceable(40) %2, i32 noundef %3) unnamed_addr #0 align 2 {
  store ptr getelementptr inbounds inrange(-16, 16) (i8, ptr @_ZTVN5clang6driver6ActionE, i64 16), ptr %0, align 8
  %5 = getelementptr inbounds nuw i8, ptr %0, i64 8
  store i32 %1, ptr %5, align 8
  %6 = getelementptr inbounds nuw i8, ptr %0, i64 12
  store i32 %3, ptr %6, align 4
  %7 = getelementptr inbounds nuw i8, ptr %0, i64 16
  %8 = getelementptr inbounds i8, ptr %0, i64 32
  tail call void @_ZN4llvm15SmallVectorBaseIjEC2EPvm(ptr noundef nonnull align 8 dereferenceable(16) %7, ptr noundef nonnull %8, i64 noundef 3) #11
  %9 = tail call noundef zeroext i1 @_ZNK4llvm15SmallVectorBaseIjE5emptyEv(ptr noundef nonnull align 8 dereferenceable(16) %2) #11
  br i1 %9, label %_ZN5clang6driver6ActionC2ENS1_11ActionClassERKN4llvm11SmallVectorIPS1_Lj3EEENS0_5types2IDE.exit, label %10

10:                                               ; preds = %4
  %11 = tail call noundef nonnull align 8 dereferenceable(16) ptr @_ZN4llvm15SmallVectorImplIPN5clang6driver6ActionEEaSERKS5_(ptr noundef nonnull align 8 dereferenceable(16) %7, ptr noundef nonnull align 8 dereferenceable(16) %2)
  br label %_ZN5clang6driver6ActionC2ENS1_11ActionClassERKN4llvm11SmallVectorIPS1_Lj3EEENS0_5types2IDE.exit

_ZN5clang6driver6ActionC2ENS1_11ActionClassERKN4llvm11SmallVectorIPS1_Lj3EEENS0_5types2IDE.exit: ; preds = %4, %10
  %12 = getelementptr inbounds nuw i8, ptr %0, i64 56
  store i8 1, ptr %12, align 8
  %13 = getelementptr inbounds nuw i8, ptr %0, i64 60
  store i32 0, ptr %13, align 4
  %14 = getelementptr inbounds nuw i8, ptr %0, i64 64
  store i32 0, ptr %14, align 8
  %15 = getelementptr inbounds nuw i8, ptr %0, i64 72
  tail call void @llvm.memset.p0.i64(ptr noundef nonnull align 8 dereferenceable(16) %15, i8 0, i64 16, i1 false)
  store ptr getelementptr inbounds inrange(-16, 24) (i8, ptr @_ZTVN5clang6driver9JobActionE, i64 16), ptr %0, align 8
  ret void
}